target datalayout = "e-m:e-p270:32:32-p271:32:32-p272:64:64-i64:64-i128:128-f80:128-n8:16:32:64-S128"
target triple = "x86_64-pc-linux-gnu"

%struct.SIZED_DATA = type { i64, ptr }
%struct.aes_key_st = type { [60 x i32], i32 }
%struct.gcm128_data = type { %struct.SIZED_DATA, %struct.SIZED_DATA, %struct.SIZED_DATA, %struct.SIZED_DATA, %struct.SIZED_DATA, %struct.SIZED_DATA }
%struct.gcm128_context = type { %union.anon, %union.anon, %union.anon, %union.anon, %union.anon, %union.anon, [16 x %struct.u128], %struct.gcm_funcs_st, i32, i32, ptr, ptr, [48 x i8] }
%union.anon = type { [2 x i64] }
%struct.u128 = type { i64, i64 }
%struct.gcm_funcs_st = type { ptr, ptr, ptr }

@.str.4 = private unnamed_addr constant [38 x i8] c"../openssl/test/modes_internal_test.c\00", align 1
@.str.18 = private unnamed_addr constant [49 x i8] c"CRYPTO_gcm128_encrypt(&ctx, P.data, out, P.size)\00", align 1
@.str.19 = private unnamed_addr constant [2 x i8] c"0\00", align 1
@.str.20 = private unnamed_addr constant [39 x i8] c"CRYPTO_gcm128_finish(&ctx, T.data, 16)\00", align 1
@.str.21 = private unnamed_addr constant [4 x i8] c"out\00", align 1
@.str.22 = private unnamed_addr constant [7 x i8] c"C.data\00", align 1
@.str.23 = private unnamed_addr constant [7 x i8] c"P.data\00", align 1

; Function Attrs: nounwind uwtable
define internal i32 @test_gcm128(i32 noundef %0) #0 {
  %2 = alloca i32, align 4
  %3 = alloca i32, align 4
  %4 = alloca [512 x i8], align 16
  %5 = alloca %struct.SIZED_DATA, align 8
  %6 = alloca %struct.SIZED_DATA, align 8
  %7 = alloca %struct.SIZED_DATA, align 8
  %8 = alloca %struct.SIZED_DATA, align 8
  %9 = alloca %struct.SIZED_DATA, align 8
  %10 = alloca %struct.SIZED_DATA, align 8
  %11 = alloca %struct.gcm128_context, align 8
  %12 = alloca %struct.aes_key_st, align 4
  %13 = alloca i32, align 4
  store i32 %0, ptr %3, align 4, !tbaa !4
  call void @llvm.lifetime.start.p0(i64 512, ptr %4) #5
  call void @llvm.lifetime.start.p0(i64 16, ptr %5) #5
  %14 = load i32, ptr %3, align 4, !tbaa !4
  %15 = sext i32 %14 to i64
  %16 = getelementptr inbounds [20 x %struct.gcm128_data], ptr @gcm128_vectors, i64 0, i64 %15
  %17 = getelementptr inbounds nuw %struct.gcm128_data, ptr %16, i32 0, i32 0
  call void @llvm.memcpy.p0.p0.i64(ptr align 8 %5, ptr align 16 %17, i64 16, i1 false), !tbaa.struct !8
  call void @llvm.lifetime.start.p0(i64 16, ptr %6) #5
  %18 = load i32, ptr %3, align 4, !tbaa !4
  %19 = sext i32 %18 to i64
  %20 = getelementptr inbounds [20 x %struct.gcm128_data], ptr @gcm128_vectors, i64 0, i64 %19
  %21 = getelementptr inbounds nuw %struct.gcm128_data, ptr %20, i32 0, i32 1
  call void @llvm.memcpy.p0.p0.i64(ptr align 8 %6, ptr align 16 %21, i64 16, i1 false), !tbaa.struct !8
  call void @llvm.lifetime.start.p0(i64 16, ptr %7) #5
  %22 = load i32, ptr %3, align 4, !tbaa !4
  %23 = sext i32 %22 to i64
  %24 = getelementptr inbounds [20 x %struct.gcm128_data], ptr @gcm128_vectors, i64 0, i64 %23
  %25 = getelementptr inbounds nuw %struct.gcm128_data, ptr %24, i32 0, i32 2
  call void @llvm.memcpy.p0.p0.i64(ptr align 8 %7, ptr align 16 %25, i64 16, i1 false), !tbaa.struct !8
  call void @llvm.lifetime.start.p0(i64 16, ptr %8) #5
  %26 = load i32, ptr %3, align 4, !tbaa !4
  %27 = sext i32 %26 to i64
  %28 = getelementptr inbounds [20 x %struct.gcm128_data], ptr @gcm128_vectors, i64 0, i64 %27
  %29 = getelementptr inbounds nuw %struct.gcm128_data, ptr %28, i32 0, i32 3
  call void @llvm.memcpy.p0.p0.i64(ptr align 8 %8, ptr align 16 %29, i64 16, i1 false), !tbaa.struct !8
  call void @llvm.lifetime.start.p0(i64 16, ptr %9) #5
  %30 = load i32, ptr %3, align 4, !tbaa !4
  %31 = sext i32 %30 to i64
  %32 = getelementptr inbounds [20 x %struct.gcm128_data], ptr @gcm128_vectors, i64 0, i64 %31
  %33 = getelementptr inbounds nuw %struct.gcm128_data, ptr %32, i32 0, i32 4
  call void @llvm.memcpy.p0.p0.i64(ptr align 8 %9, ptr align 16 %33, i64 16, i1 false), !tbaa.struct !8
  call void @llvm.lifetime.start.p0(i64 16, ptr %10) #5
  %34 = load i32, ptr %3, align 4, !tbaa !4
  %35 = sext i32 %34 to i64
  %36 = getelementptr inbounds [20 x %struct.gcm128_data], ptr @gcm128_vectors, i64 0, i64 %35
  %37 = getelementptr inbounds nuw %struct.gcm128_data, ptr %36, i32 0, i32 5
  call void @llvm.memcpy.p0.p0.i64(ptr align 8 %10, ptr align 16 %37, i64 16, i1 false), !tbaa.struct !8
  call void @llvm.lifetime.start.p0(i64 448, ptr %11) #5
  call void @llvm.lifetime.start.p0(i64 244, ptr %12) #5
  %38 = getelementptr inbounds nuw %struct.SIZED_DATA, ptr %7, i32 0, i32 0
  %39 = load i64, ptr %38, align 8, !tbaa !14
  %40 = icmp eq i64 %39, 1
  br i1 %40, label %41, label %43

41:                                               ; preds = %1
  %42 = getelementptr inbounds nuw %struct.SIZED_DATA, ptr %7, i32 0, i32 1
  store ptr null, ptr %42, align 8, !tbaa !16
  br label %43

43:                                               ; preds = %41, %1
  %44 = getelementptr inbounds nuw %struct.SIZED_DATA, ptr %8, i32 0, i32 0
  %45 = load i64, ptr %44, align 8, !tbaa !14
  %46 = icmp eq i64 %45, 1
  br i1 %46, label %47, label %49

47:                                               ; preds = %43
  %48 = getelementptr inbounds nuw %struct.SIZED_DATA, ptr %8, i32 0, i32 1
  store ptr null, ptr %48, align 8, !tbaa !16
  br label %49

49:                                               ; preds = %47, %43
  %50 = getelementptr inbounds nuw %struct.SIZED_DATA, ptr %9, i32 0, i32 0
  %51 = load i64, ptr %50, align 8, !tbaa !14
  %52 = icmp eq i64 %51, 1
  br i1 %52, label %53, label %55

53:                                               ; preds = %49
  %54 = getelementptr inbounds nuw %struct.SIZED_DATA, ptr %9, i32 0, i32 1
  store ptr null, ptr %54, align 8, !tbaa !16
  br label %55

55:                                               ; preds = %53, %49
  %56 = getelementptr inbounds nuw %struct.SIZED_DATA, ptr %5, i32 0, i32 1
  %57 = load ptr, ptr %56, align 8, !tbaa !16
  %58 = getelementptr inbounds nuw %struct.SIZED_DATA, ptr %5, i32 0, i32 0
  %59 = load i64, ptr %58, align 8, !tbaa !14
  %60 = mul i64 %59, 8
  %61 = trunc i64 %60 to i32
  %62 = call i32 @AES_set_encrypt_key(ptr noundef %57, i32 noundef %61, ptr noundef %12)
  call void @CRYPTO_gcm128_init(ptr noundef %11, ptr noundef %12, ptr noundef @AES_encrypt)
  %63 = getelementptr inbounds nuw %struct.SIZED_DATA, ptr %6, i32 0, i32 1
  %64 = load ptr, ptr %63, align 8, !tbaa !16
  %65 = getelementptr inbounds nuw %struct.SIZED_DATA, ptr %6, i32 0, i32 0
  %66 = load i64, ptr %65, align 8, !tbaa !14
  call void @CRYPTO_gcm128_setiv(ptr noundef %11, ptr noundef %64, i64 noundef %66)
  %67 = getelementptr inbounds [512 x i8], ptr %4, i64 0, i64 0
  %68 = getelementptr inbounds nuw %struct.SIZED_DATA, ptr %8, i32 0, i32 0
  %69 = load i64, ptr %68, align 8, !tbaa !14
  call void @llvm.memset.p0.i64(ptr align 16 %67, i8 0, i64 %69, i1 false)
  %70 = getelementptr inbounds nuw %struct.SIZED_DATA, ptr %7, i32 0, i32 1
  %71 = load ptr, ptr %70, align 8, !tbaa !16
  %72 = icmp ne ptr %71, null
  br i1 %72, label %73, label %79

73:                                               ; preds = %55
  %74 = getelementptr inbounds nuw %struct.SIZED_DATA, ptr %7, i32 0, i32 1
  %75 = load ptr, ptr %74, align 8, !tbaa !16
  %76 = getelementptr inbounds nuw %struct.SIZED_DATA, ptr %7, i32 0, i32 0
  %77 = load i64, ptr %76, align 8, !tbaa !14
  %78 = call i32 @CRYPTO_gcm128_aad(ptr noundef %11, ptr noundef %75, i64 noundef %77)
  br label %79

79:                                               ; preds = %73, %55
  %80 = getelementptr inbounds nuw %struct.SIZED_DATA, ptr %8, i32 0, i32 1
  %81 = load ptr, ptr %80, align 8, !tbaa !16
  %82 = icmp ne ptr %81, null
  br i1 %82, label %83, label %94

83:                                               ; preds = %79
  %84 = getelementptr inbounds nuw %struct.SIZED_DATA, ptr %8, i32 0, i32 1
  %85 = load ptr, ptr %84, align 8, !tbaa !16
  %86 = getelementptr inbounds [512 x i8], ptr %4, i64 0, i64 0
  %87 = getelementptr inbounds nuw %struct.SIZED_DATA, ptr %8, i32 0, i32 0
  %88 = load i64, ptr %87, align 8, !tbaa !14
  %89 = call i32 @CRYPTO_gcm128_encrypt(ptr noundef %11, ptr noundef %85, ptr noundef %86, i64 noundef %88)
  %90 = call i32 @test_int_ge(ptr noundef @.str.4, i32 noundef 873, ptr noundef @.str.18, ptr noundef @.str.19, i32 noundef %89, i32 noundef 0)
  %91 = icmp ne i32 %90, 0
  br i1 %91, label %93, label %92

92:                                               ; preds = %83
  store i32 0, ptr %2, align 4
  store i32 1, ptr %13, align 4
  br label %169

93:                                               ; preds = %83
  br label %94

94:                                               ; preds = %93, %79
  %95 = getelementptr inbounds nuw %struct.SIZED_DATA, ptr %10, i32 0, i32 1
  %96 = load ptr, ptr %95, align 8, !tbaa !16
  %97 = call i32 @CRYPTO_gcm128_finish(ptr noundef %11, ptr noundef %96, i64 noundef 16)
  %98 = icmp ne i32 %97, 0
  %99 = zext i1 %98 to i32
  %100 = call i32 @test_false(ptr noundef @.str.4, i32 noundef 875, ptr noundef @.str.20, i32 noundef %99)
  %101 = icmp ne i32 %100, 0
  br i1 %101, label %102, label %116

102:                                              ; preds = %94
  %103 = getelementptr inbounds nuw %struct.SIZED_DATA, ptr %9, i32 0, i32 1
  %104 = load ptr, ptr %103, align 8, !tbaa !16
  %105 = icmp ne ptr %104, null
  br i1 %105, label %106, label %117

106:                                              ; preds = %102
  %107 = getelementptr inbounds [512 x i8], ptr %4, i64 0, i64 0
  %108 = getelementptr inbounds nuw %struct.SIZED_DATA, ptr %8, i32 0, i32 0
  %109 = load i64, ptr %108, align 8, !tbaa !14
  %110 = getelementptr inbounds nuw %struct.SIZED_DATA, ptr %9, i32 0, i32 1
  %111 = load ptr, ptr %110, align 8, !tbaa !16
  %112 = getelementptr inbounds nuw %struct.SIZED_DATA, ptr %8, i32 0, i32 0
  %113 = load i64, ptr %112, align 8, !tbaa !14
  %114 = call i32 @test_mem_eq(ptr noundef @.str.4, i32 noundef 877, ptr noundef @.str.21, ptr noundef @.str.22, ptr noundef %107, i64 noundef %109, ptr noundef %111, i64 noundef %113)
  %115 = icmp ne i32 %114, 0
  br i1 %115, label %117, label %116

116:                                              ; preds = %106, %94
  store i32 0, ptr %2, align 4
  store i32 1, ptr %13, align 4
  br label %169

117:                                              ; preds = %106, %102
  %118 = getelementptr inbounds nuw %struct.SIZED_DATA, ptr %6, i32 0, i32 1
  %119 = load ptr, ptr %118, align 8, !tbaa !16
  %120 = getelementptr inbounds nuw %struct.SIZED_DATA, ptr %6, i32 0, i32 0
  %121 = load i64, ptr %120, align 8, !tbaa !14
  call void @CRYPTO_gcm128_setiv(ptr noundef %11, ptr noundef %119, i64 noundef %121)
  %122 = getelementptr inbounds [512 x i8], ptr %4, i64 0, i64 0
  %123 = getelementptr inbounds nuw %struct.SIZED_DATA, ptr %8, i32 0, i32 0
  %124 = load i64, ptr %123, align 8, !tbaa !14
  call void @llvm.memset.p0.i64(ptr align 16 %122, i8 0, i64 %124, i1 false)
  %125 = getelementptr inbounds nuw %struct.SIZED_DATA, ptr %7, i32 0, i32 1
  %126 = load ptr, ptr %125, align 8, !tbaa !16
  %127 = icmp ne ptr %126, null
  br i1 %127, label %128, label %134

128:                                              ; preds = %117
  %129 = getelementptr inbounds nuw %struct.SIZED_DATA, ptr %7, i32 0, i32 1
  %130 = load ptr, ptr %129, align 8, !tbaa !16
  %131 = getelementptr inbounds nuw %struct.SIZED_DATA, ptr %7, i32 0, i32 0
  %132 = load i64, ptr %131, align 8, !tbaa !14
  %133 = call i32 @CRYPTO_gcm128_aad(ptr noundef %11, ptr noundef %130, i64 noundef %132)
  br label %134

134:                                              ; preds = %128, %117
  %135 = getelementptr inbounds nuw %struct.SIZED_DATA, ptr %9, i32 0, i32 1
  %136 = load ptr, ptr %135, align 8, !tbaa !16
  %137 = icmp ne ptr %136, null
  br i1 %137, label %138, label %145

138:                                              ; preds = %134
  %139 = getelementptr inbounds nuw %struct.SIZED_DATA, ptr %9, i32 0, i32 1
  %140 = load ptr, ptr %139, align 8, !tbaa !16
  %141 = getelementptr inbounds [512 x i8], ptr %4, i64 0, i64 0
  %142 = getelementptr inbounds nuw %struct.SIZED_DATA, ptr %8, i32 0, i32 0
  %143 = load i64, ptr %142, align 8, !tbaa !14
  %144 = call i32 @CRYPTO_gcm128_decrypt(ptr noundef %11, ptr noundef %140, ptr noundef %141, i64 noundef %143)
  br label %145

145:                                              ; preds = %138, %134
  %146 = getelementptr inbounds nuw %struct.SIZED_DATA, ptr %10, i32 0, i32 1
  %147 = load ptr, ptr %146, align 8, !tbaa !16
  %148 = call i32 @CRYPTO_gcm128_finish(ptr noundef %11, ptr noundef %147, i64 noundef 16)
  %149 = icmp ne i32 %148, 0
  %150 = zext i1 %149 to i32
  %151 = call i32 @test_false(ptr noundef @.str.4, i32 noundef 886, ptr noundef @.str.20, i32 noundef %150)
  %152 = icmp ne i32 %151, 0
  br i1 %152, label %153, label %167

153:                                              ; preds = %145
  %154 = getelementptr inbounds nuw %struct.SIZED_DATA, ptr %8, i32 0, i32 1
  %155 = load ptr, ptr %154, align 8, !tbaa !16
  %156 = icmp ne ptr %155, null
  br i1 %156, label %157, label %168

157:                                              ; preds = %153
  %158 = getelementptr inbounds [512 x i8], ptr %4, i64 0, i64 0
  %159 = getelementptr inbounds nuw %struct.SIZED_DATA, ptr %8, i32 0, i32 0
  %160 = load i64, ptr %159, align 8, !tbaa !14
  %161 = getelementptr inbounds nuw %struct.SIZED_DATA, ptr %8, i32 0, i32 1
  %162 = load ptr, ptr %161, align 8, !tbaa !16
  %163 = getelementptr inbounds nuw %struct.SIZED_DATA, ptr %8, i32 0, i32 0
  %164 = load i64, ptr %163, align 8, !tbaa !14
  %165 = call i32 @test_mem_eq(ptr noundef @.str.4, i32 noundef 888, ptr noundef @.str.21, ptr noundef @.str.23, ptr noundef %158, i64 noundef %160, ptr noundef %162, i64 noundef %164)
  %166 = icmp ne i32 %165, 0
  br i1 %166, label %168, label %167

167:                                              ; preds = %157, %145
  store i32 0, ptr %2, align 4
  store i32 1, ptr %13, align 4
  br label %169

168:                                              ; preds = %157, %153
  store i32 1, ptr %2, align 4
  store i32 1, ptr %13, align 4
  br label %169

169:                                              ; preds = %168, %167, %116, %92
  call void @llvm.lifetime.end.p0(i64 244, ptr %12) #5
  call void @llvm.lifetime.end.p0(i64 448, ptr %11) #5
  call void @llvm.lifetime.end.p0(i64 16, ptr %10) #5
  call void @llvm.lifetime.end.p0(i64 16, ptr %9) #5
  call void @llvm.lifetime.end.p0(i64 16, ptr %8) #5
  call void @llvm.lifetime.end.p0(i64 16, ptr %7) #5
  call void @llvm.lifetime.end.p0(i64 16, ptr %6) #5
  call void @llvm.lifetime.end.p0(i64 16, ptr %5) #5
  call void @llvm.lifetime.end.p0(i64 512, ptr %4) #5
  %170 = load i32, ptr %2, align 4
  ret i32 %170
}