; Function Attrs: nounwind uwtable
define internal range(i32 0, 2) i32 @test_gcm128(i32 noundef %0) #0 {
  %2 = alloca [512 x i8], align 16
  %3 = alloca %struct.gcm128_context, align 8
  %4 = alloca %struct.aes_key_st, align 4
  call void @llvm.lifetime.start.p0(i64 512, ptr nonnull %2) #6
  %5 = sext i32 %0 to i64
  %6 = getelementptr inbounds [20 x %struct.gcm128_data], ptr @gcm128_vectors, i64 0, i64 %5
  %.sroa.027.0.copyload = load i64, ptr %6, align 16, !tbaa !4
  %.sroa.428.0..sroa_idx = getelementptr inbounds nuw i8, ptr %6, i64 8
  %.sroa.428.0.copyload = load ptr, ptr %.sroa.428.0..sroa_idx, align 8, !tbaa !8
  %7 = getelementptr inbounds nuw i8, ptr %6, i64 16
  %.sroa.024.0.copyload = load i64, ptr %7, align 16, !tbaa !4
  %.sroa.5.0..sroa_idx = getelementptr inbounds nuw i8, ptr %6, i64 24
  %.sroa.5.0.copyload = load ptr, ptr %.sroa.5.0..sroa_idx, align 8, !tbaa !8
  %8 = getelementptr inbounds nuw i8, ptr %6, i64 32
  %.sroa.018.0.copyload = load i64, ptr %8, align 16, !tbaa !4
  %.sroa.6.0..sroa_idx = getelementptr inbounds nuw i8, ptr %6, i64 40
  %.sroa.6.0.copyload = load ptr, ptr %.sroa.6.0..sroa_idx, align 8, !tbaa !8
  %9 = getelementptr inbounds nuw i8, ptr %6, i64 48
  %.sroa.06.0.copyload = load i64, ptr %9, align 16, !tbaa !4
  %.sroa.12.0..sroa_idx = getelementptr inbounds nuw i8, ptr %6, i64 56
  %.sroa.12.0.copyload = load ptr, ptr %.sroa.12.0..sroa_idx, align 8, !tbaa !8
  %10 = getelementptr inbounds nuw i8, ptr %6, i64 64
  %.sroa.02.0.copyload = load i64, ptr %10, align 16, !tbaa !4
  %.sroa.4.0..sroa_idx = getelementptr inbounds nuw i8, ptr %6, i64 72
  %.sroa.4.0.copyload = load ptr, ptr %.sroa.4.0..sroa_idx, align 8, !tbaa !8
  %.sroa.3.0..sroa_idx = getelementptr inbounds nuw i8, ptr %6, i64 88
  %.sroa.3.0.copyload = load ptr, ptr %.sroa.3.0..sroa_idx, align 8, !tbaa !8
  call void @llvm.lifetime.start.p0(i64 448, ptr nonnull %3) #6
  call void @llvm.lifetime.start.p0(i64 244, ptr nonnull %4) #6
  %11 = icmp eq i64 %.sroa.018.0.copyload, 1
  %spec.select = select i1 %11, ptr null, ptr %.sroa.6.0.copyload
  %12 = icmp eq i64 %.sroa.06.0.copyload, 1
  %.sroa.12.0 = select i1 %12, ptr null, ptr %.sroa.12.0.copyload
  %13 = icmp eq i64 %.sroa.02.0.copyload, 1
  %.sroa.4.0 = select i1 %13, ptr null, ptr %.sroa.4.0.copyload
  %.sroa.027.0.copyload.tr = trunc i64 %.sroa.027.0.copyload to i32
  %14 = shl i32 %.sroa.027.0.copyload.tr, 3
  %15 = call i32 @AES_set_encrypt_key(ptr noundef %.sroa.428.0.copyload, i32 noundef %14, ptr noundef nonnull %4) #6
  call void @CRYPTO_gcm128_init(ptr noundef nonnull %3, ptr noundef nonnull %4, ptr noundef nonnull @AES_encrypt) #6
  call void @CRYPTO_gcm128_setiv(ptr noundef nonnull %3, ptr noundef %.sroa.5.0.copyload, i64 noundef %.sroa.024.0.copyload) #6
  call void @llvm.memset.p0.i64(ptr nonnull align 16 %2, i8 0, i64 %.sroa.06.0.copyload, i1 false)
  %.not = icmp eq ptr %spec.select, null
  br i1 %.not, label %18, label %16

16:                                               ; preds = %1
  %17 = call i32 @CRYPTO_gcm128_aad(ptr noundef nonnull %3, ptr noundef nonnull %spec.select, i64 noundef %.sroa.018.0.copyload) #6
  br label %18

18:                                               ; preds = %16, %1
  %.not35 = icmp eq ptr %.sroa.12.0, null
  br i1 %.not35, label %22, label %19

19:                                               ; preds = %18
  %20 = call i32 @CRYPTO_gcm128_encrypt(ptr noundef nonnull %3, ptr noundef nonnull %.sroa.12.0, ptr noundef nonnull %2, i64 noundef %.sroa.06.0.copyload) #6
  %21 = call i32 @test_int_ge(ptr noundef nonnull @.str.4, i32 noundef 873, ptr noundef nonnull @.str.18, ptr noundef nonnull @.str.19, i32 noundef %20, i32 noundef 0) #6
  %.not36 = icmp eq i32 %21, 0
  br i1 %.not36, label %45, label %22

22:                                               ; preds = %19, %18
  %23 = call i32 @CRYPTO_gcm128_finish(ptr noundef nonnull %3, ptr noundef %.sroa.3.0.copyload, i64 noundef 16) #6
  %24 = icmp ne i32 %23, 0
  %25 = zext i1 %24 to i32
  %26 = call i32 @test_false(ptr noundef nonnull @.str.4, i32 noundef 875, ptr noundef nonnull @.str.20, i32 noundef %25) #6
  %.not37 = icmp eq i32 %26, 0
  br i1 %.not37, label %45, label %27

27:                                               ; preds = %22
  %.not38 = icmp eq ptr %.sroa.4.0, null
  br i1 %.not38, label %30, label %28

28:                                               ; preds = %27
  %29 = call i32 @test_mem_eq(ptr noundef nonnull @.str.4, i32 noundef 877, ptr noundef nonnull @.str.21, ptr noundef nonnull @.str.22, ptr noundef nonnull %2, i64 noundef %.sroa.06.0.copyload, ptr noundef nonnull %.sroa.4.0, i64 noundef %.sroa.06.0.copyload) #6
  %.not39 = icmp eq i32 %29, 0
  br i1 %.not39, label %45, label %30

30:                                               ; preds = %28, %27
  call void @CRYPTO_gcm128_setiv(ptr noundef nonnull %3, ptr noundef %.sroa.5.0.copyload, i64 noundef %.sroa.024.0.copyload) #6
  call void @llvm.memset.p0.i64(ptr nonnull align 16 %2, i8 0, i64 %.sroa.06.0.copyload, i1 false)
  br i1 %.not, label %33, label %31

31:                                               ; preds = %30
  %32 = call i32 @CRYPTO_gcm128_aad(ptr noundef nonnull %3, ptr noundef nonnull %spec.select, i64 noundef %.sroa.018.0.copyload) #6
  br label %33

33:                                               ; preds = %31, %30
  br i1 %.not38, label %36, label %34

34:                                               ; preds = %33
  %35 = call i32 @CRYPTO_gcm128_decrypt(ptr noundef nonnull %3, ptr noundef nonnull %.sroa.4.0, ptr noundef nonnull %2, i64 noundef %.sroa.06.0.copyload) #6
  br label %36

36:                                               ; preds = %34, %33
  %37 = call i32 @CRYPTO_gcm128_finish(ptr noundef nonnull %3, ptr noundef %.sroa.3.0.copyload, i64 noundef 16) #6
  %38 = icmp ne i32 %37, 0
  %39 = zext i1 %38 to i32
  %40 = call i32 @test_false(ptr noundef nonnull @.str.4, i32 noundef 886, ptr noundef nonnull @.str.20, i32 noundef %39) #6
  %.not40 = icmp eq i32 %40, 0
  br i1 %.not40, label %45, label %41

41:                                               ; preds = %36
  br i1 %.not35, label %44, label %42

42:                                               ; preds = %41
  %43 = call i32 @test_mem_eq(ptr noundef nonnull @.str.4, i32 noundef 888, ptr noundef nonnull @.str.21, ptr noundef nonnull @.str.23, ptr noundef nonnull %2, i64 noundef %.sroa.06.0.copyload, ptr noundef nonnull %.sroa.12.0, i64 noundef %.sroa.06.0.copyload) #6
  %.not41 = icmp eq i32 %43, 0
  br i1 %.not41, label %45, label %44

44:                                               ; preds = %42, %41
  br label %45

45:                                               ; preds = %36, %42, %22, %28, %19, %44
  %.0 = phi i32 [ 1, %44 ], [ 0, %19 ], [ 0, %28 ], [ 0, %22 ], [ 0, %42 ], [ 0, %36 ]
  call void @llvm.lifetime.end.p0(i64 244, ptr nonnull %4) #6
  call void @llvm.lifetime.end.p0(i64 448, ptr nonnull %3) #6
  call void @llvm.lifetime.end.p0(i64 512, ptr nonnull %2) #6
  ret i32 %.0
}